target datalayout = "e-m:e-p270:32:32-p271:32:32-p272:64:64-i64:64-i128:128-f80:128-n8:16:32:64-S128"
target triple = "x86_64-pc-linux-gnu"

@pg_data = internal global ptr null, align 8
@.str.63 = private unnamed_addr constant [2 x i8] c"w\00", align 1
@.str.283 = private unnamed_addr constant [14 x i8] c"%s/PG_VERSION\00", align 1
@.str.284 = private unnamed_addr constant [17 x i8] c"%s/%s/PG_VERSION\00", align 1
@.str.285 = private unnamed_addr constant [41 x i8] c"could not open file \22%s\22 for writing: %m\00", align 1
@.str.286 = private unnamed_addr constant [4 x i8] c"%s\0A\00", align 1
@.str.287 = private unnamed_addr constant [3 x i8] c"18\00", align 1
@.str.288 = private unnamed_addr constant [30 x i8] c"could not write file \22%s\22: %m\00", align 1

; Function Attrs: nounwind uwtable
define internal void @write_version_file(ptr noundef %0) #0 {
  %2 = alloca ptr, align 8
  %3 = alloca ptr, align 8
  %4 = alloca ptr, align 8
  store ptr %0, ptr %2, align 8
  call void @llvm.lifetime.start.p0(i64 8, ptr %3) #10
  call void @llvm.lifetime.start.p0(i64 8, ptr %4) #10
  %5 = load ptr, ptr %2, align 8
  %6 = icmp eq ptr %5, null
  br i1 %6, label %7, label %10

7:                                                ; preds = %1
  %8 = load ptr, ptr @pg_data, align 8
  %9 = call ptr (ptr, ...) @psprintf(ptr noundef @.str.283, ptr noundef %8)
  store ptr %9, ptr %4, align 8
  br label %14

10:                                               ; preds = %1
  %11 = load ptr, ptr @pg_data, align 8
  %12 = load ptr, ptr %2, align 8
  %13 = call ptr (ptr, ...) @psprintf(ptr noundef @.str.284, ptr noundef %11, ptr noundef %12)
  store ptr %13, ptr %4, align 8
  br label %14

14:                                               ; preds = %10, %7
  %15 = load ptr, ptr %4, align 8
  %16 = call noalias ptr @fopen(ptr noundef %15, ptr noundef @.str.63)
  store ptr %16, ptr %3, align 8
  %17 = icmp eq ptr %16, null
  br i1 %17, label %18, label %23

18:                                               ; preds = %14
  br label %19

19:                                               ; preds = %18
  %20 = load ptr, ptr %4, align 8
  call void (i32, i32, ptr, ...) @pg_log_generic(i32 noundef 4, i32 noundef 0, ptr noundef @.str.285, ptr noundef %20)
  call void @exit(i32 noundef 1) #12
  unreachable

21:                                               ; No predecessors!
  br label %22

22:                                               ; preds = %21
  br label %23

23:                                               ; preds = %22, %14
  %24 = load ptr, ptr %3, align 8
  %25 = call i32 (ptr, ptr, ...) @pg_fprintf(ptr noundef %24, ptr noundef @.str.286, ptr noundef @.str.287)
  %26 = icmp slt i32 %25, 0
  br i1 %26, label %31, label %27

27:                                               ; preds = %23
  %28 = load ptr, ptr %3, align 8
  %29 = call i32 @fclose(ptr noundef %28)
  %30 = icmp ne i32 %29, 0
  br i1 %30, label %31, label %36

31:                                               ; preds = %27, %23
  br label %32

32:                                               ; preds = %31
  %33 = load ptr, ptr %4, align 8
  call void (i32, i32, ptr, ...) @pg_log_generic(i32 noundef 4, i32 noundef 0, ptr noundef @.str.288, ptr noundef %33)
  call void @exit(i32 noundef 1) #12
  unreachable

34:                                               ; No predecessors!
  br label %35

35:                                               ; preds = %34
  br label %36

36:                                               ; preds = %35, %27
  %37 = load ptr, ptr %4, align 8
  call void @free(ptr noundef %37) #10
  call void @llvm.lifetime.end.p0(i64 8, ptr %4) #10
  call void @llvm.lifetime.end.p0(i64 8, ptr %3) #10
  ret void
}