; Function Attrs: nounwind uwtable
define internal fastcc void @write_version_file(ptr noundef %0) unnamed_addr #0 {
  %2 = icmp eq ptr %0, null
  %3 = load ptr, ptr @pg_data, align 8
  br i1 %2, label %4, label %6

4:                                                ; preds = %1
  %5 = tail call ptr (ptr, ...) @psprintf(ptr noundef nonnull @.str.283, ptr noundef %3) #19
  br label %8

6:                                                ; preds = %1
  %7 = tail call ptr (ptr, ...) @psprintf(ptr noundef nonnull @.str.284, ptr noundef %3, ptr noundef nonnull %0) #19
  br label %8

8:                                                ; preds = %6, %4
  %.0 = phi ptr [ %5, %4 ], [ %7, %6 ]
  %9 = tail call noalias ptr @fopen(ptr noundef %.0, ptr noundef nonnull @.str.63)
  %10 = icmp eq ptr %9, null
  br i1 %10, label %11, label %12

11:                                               ; preds = %8
  tail call void (i32, i32, ptr, ...) @pg_log_generic(i32 noundef 4, i32 noundef 0, ptr noundef nonnull @.str.285, ptr noundef %.0) #19
  tail call void @exit(i32 noundef 1) #20
  unreachable

12:                                               ; preds = %8
  %13 = tail call i32 (ptr, ptr, ...) @pg_fprintf(ptr noundef nonnull %9, ptr noundef nonnull @.str.286, ptr noundef nonnull @.str.287) #19
  %14 = icmp slt i32 %13, 0
  br i1 %14, label %17, label %15

15:                                               ; preds = %12
  %16 = tail call i32 @fclose(ptr noundef nonnull %9)
  %.not = icmp eq i32 %16, 0
  br i1 %.not, label %18, label %17

17:                                               ; preds = %12, %15
  tail call void (i32, i32, ptr, ...) @pg_log_generic(i32 noundef 4, i32 noundef 0, ptr noundef nonnull @.str.288, ptr noundef %.0) #19
  tail call void @exit(i32 noundef 1) #20
  unreachable

18:                                               ; preds = %15
  tail call void @free(ptr noundef %.0) #19
  ret void
}